; Function Attrs: mustprogress uwtable
define void @_ZN3gmx28AnalysisDataBinAverageModule4initERKNS_25AnalysisHistogramSettingsE(ptr noundef nonnull align 8 dereferenceable(112) %0, ptr nocapture noundef nonnull readonly align 4 dereferenceable(21) %1) local_unnamed_addr #3 align 2 {
  %3 = getelementptr inbounds i8, ptr %0, i64 104
  %4 = load ptr, ptr %3, align 8
  tail call void @llvm.memcpy.p0.p0.i64(ptr noundef nonnull align 8 dereferenceable(21) %4, ptr noundef nonnull align 4 dereferenceable(21) %1, i64 21, i1 false)
  %5 = getelementptr inbounds i8, ptr %1, i64 16
  %6 = load i32, ptr %5, align 4
  tail call void @_ZN3gmx25AbstractAnalysisArrayData11setRowCountEi(ptr noundef nonnull align 8 dereferenceable(94) %0, i32 noundef %6)
  %7 = load float, ptr %1, align 4
  %8 = fpext float %7 to double
  %9 = getelementptr inbounds i8, ptr %1, i64 8
  %10 = load float, ptr %9, align 4
  %11 = fpext float %10 to double
  %12 = tail call double @llvm.fmuladd.f64(double %11, double 5.000000e-01, double %8)
  %13 = fptrunc double %12 to float
  tail call void @_ZN3gmx25AbstractAnalysisArrayData8setXAxisEff(ptr noundef nonnull align 8 dereferenceable(94) %0, float noundef %13, float noundef %10)
  ret void
}